target datalayout = "e-m:e-p270:32:32-p271:32:32-p272:64:64-i64:64-i128:128-f80:128-n8:16:32:64-S128"
target triple = "x86_64-pc-linux-gnu"

%struct.ewah_bitmap = type { ptr, i64, i64, i64, ptr }

; Function Attrs: inlinehint nounwind uwtable
define internal void @rlw_set_literal_words(ptr noundef %0, i64 noundef %1) #2 {
  %3 = alloca ptr, align 8
  %4 = alloca i64, align 8
  store ptr %0, ptr %3, align 8, !tbaa !19
  store i64 %1, ptr %4, align 8, !tbaa !11
  %5 = load ptr, ptr %3, align 8, !tbaa !19
  %6 = load i64, ptr %5, align 8, !tbaa !11
  %7 = or i64 %6, -8589934592
  store i64 %7, ptr %5, align 8, !tbaa !11
  %8 = load i64, ptr %4, align 8, !tbaa !11
  %9 = shl i64 %8, 33
  %10 = or i64 %9, 8589934591
  %11 = load ptr, ptr %3, align 8, !tbaa !19
  %12 = load i64, ptr %11, align 8, !tbaa !11
  %13 = and i64 %12, %10
  store i64 %13, ptr %11, align 8, !tbaa !11
  ret void
}

; Function Attrs: inlinehint nounwind uwtable
define internal void @rlw_set_running_len(ptr noundef %0, i64 noundef %1) #2 {
  %3 = alloca ptr, align 8
  %4 = alloca i64, align 8
  store ptr %0, ptr %3, align 8, !tbaa !19
  store i64 %1, ptr %4, align 8, !tbaa !11
  %5 = load ptr, ptr %3, align 8, !tbaa !19
  %6 = load i64, ptr %5, align 8, !tbaa !11
  %7 = or i64 %6, 8589934590
  store i64 %7, ptr %5, align 8, !tbaa !11
  %8 = load i64, ptr %4, align 8, !tbaa !11
  %9 = shl i64 %8, 1
  %10 = or i64 %9, -8589934591
  %11 = load ptr, ptr %3, align 8, !tbaa !19
  %12 = load i64, ptr %11, align 8, !tbaa !11
  %13 = and i64 %12, %10
  store i64 %13, ptr %11, align 8, !tbaa !11
  ret void
}

; Function Attrs: inlinehint nounwind uwtable
define internal i64 @rlw_get_running_len(ptr noundef %0) #2 {
  %2 = alloca ptr, align 8
  store ptr %0, ptr %2, align 8, !tbaa !19
  %3 = load ptr, ptr %2, align 8, !tbaa !19
  %4 = load i64, ptr %3, align 8, !tbaa !11
  %5 = lshr i64 %4, 1
  %6 = and i64 %5, 4294967295
  ret i64 %6
}

; Function Attrs: inlinehint nounwind uwtable
define internal i64 @rlw_get_literal_words(ptr noundef %0) #2 {
  %2 = alloca ptr, align 8
  store ptr %0, ptr %2, align 8, !tbaa !19
  %3 = load ptr, ptr %2, align 8, !tbaa !19
  %4 = load i64, ptr %3, align 8, !tbaa !11
  %5 = lshr i64 %4, 33
  ret i64 %5
}

; Function Attrs: nounwind uwtable
define dso_local void @ewah_set(ptr noundef %0, i64 noundef %1) #0 {
  %3 = alloca ptr, align 8
  %4 = alloca i64, align 8
  %5 = alloca i64, align 8
  %6 = alloca i32, align 4
  store ptr %0, ptr %3, align 8, !tbaa !4
  store i64 %1, ptr %4, align 8, !tbaa !11
  call void @llvm.lifetime.start.p0(i64 8, ptr %5) #7
  %7 = load i64, ptr %4, align 8, !tbaa !11
  %8 = add i64 %7, 1
  %9 = add i64 %8, 64
  %10 = sub i64 %9, 1
  %11 = udiv i64 %10, 64
  %12 = load ptr, ptr %3, align 8, !tbaa !4
  %13 = getelementptr inbounds nuw %struct.ewah_bitmap, ptr %12, i32 0, i32 3
  %14 = load i64, ptr %13, align 8, !tbaa !13
  %15 = add i64 %14, 64
  %16 = sub i64 %15, 1
  %17 = udiv i64 %16, 64
  %18 = sub i64 %11, %17
  store i64 %18, ptr %5, align 8, !tbaa !11
  %19 = load i64, ptr %4, align 8, !tbaa !11
  %20 = add i64 %19, 1
  %21 = load ptr, ptr %3, align 8, !tbaa !4
  %22 = getelementptr inbounds nuw %struct.ewah_bitmap, ptr %21, i32 0, i32 3
  store i64 %20, ptr %22, align 8, !tbaa !13
  %23 = load i64, ptr %5, align 8, !tbaa !11
  %24 = icmp ugt i64 %23, 0
  br i1 %24, label %25, label %39

25:                                               ; preds = %2
  %26 = load i64, ptr %5, align 8, !tbaa !11
  %27 = icmp ugt i64 %26, 1
  br i1 %27, label %28, label %33

28:                                               ; preds = %25
  %29 = load ptr, ptr %3, align 8, !tbaa !4
  %30 = load i64, ptr %5, align 8, !tbaa !11
  %31 = sub i64 %30, 1
  %32 = call i64 @add_empty_words(ptr noundef %29, i32 noundef 0, i64 noundef %31)
  br label %33

33:                                               ; preds = %28, %25
  %34 = load ptr, ptr %3, align 8, !tbaa !4
  %35 = load i64, ptr %4, align 8, !tbaa !11
  %36 = urem i64 %35, 64
  %37 = shl i64 1, %36
  %38 = call i64 @add_literal(ptr noundef %34, i64 noundef %37)
  store i32 1, ptr %6, align 4
  br label %103

39:                                               ; preds = %2
  %40 = load ptr, ptr %3, align 8, !tbaa !4
  %41 = getelementptr inbounds nuw %struct.ewah_bitmap, ptr %40, i32 0, i32 4
  %42 = load ptr, ptr %41, align 8, !tbaa !16
  %43 = call i64 @rlw_get_literal_words(ptr noundef %42)
  %44 = icmp eq i64 %43, 0
  br i1 %44, label %45, label %59

45:                                               ; preds = %39
  %46 = load ptr, ptr %3, align 8, !tbaa !4
  %47 = getelementptr inbounds nuw %struct.ewah_bitmap, ptr %46, i32 0, i32 4
  %48 = load ptr, ptr %47, align 8, !tbaa !16
  %49 = load ptr, ptr %3, align 8, !tbaa !4
  %50 = getelementptr inbounds nuw %struct.ewah_bitmap, ptr %49, i32 0, i32 4
  %51 = load ptr, ptr %50, align 8, !tbaa !16
  %52 = call i64 @rlw_get_running_len(ptr noundef %51)
  %53 = sub i64 %52, 1
  call void @rlw_set_running_len(ptr noundef %48, i64 noundef %53)
  %54 = load ptr, ptr %3, align 8, !tbaa !4
  %55 = load i64, ptr %4, align 8, !tbaa !11
  %56 = urem i64 %55, 64
  %57 = shl i64 1, %56
  %58 = call i64 @add_literal(ptr noundef %54, i64 noundef %57)
  store i32 1, ptr %6, align 4
  br label %103

59:                                               ; preds = %39
  %60 = load i64, ptr %4, align 8, !tbaa !11
  %61 = urem i64 %60, 64
  %62 = shl i64 1, %61
  %63 = load ptr, ptr %3, align 8, !tbaa !4
  %64 = getelementptr inbounds nuw %struct.ewah_bitmap, ptr %63, i32 0, i32 0
  %65 = load ptr, ptr %64, align 8, !tbaa !21
  %66 = load ptr, ptr %3, align 8, !tbaa !4
  %67 = getelementptr inbounds nuw %struct.ewah_bitmap, ptr %66, i32 0, i32 1
  %68 = load i64, ptr %67, align 8, !tbaa !20
  %69 = sub i64 %68, 1
  %70 = getelementptr inbounds nuw i64, ptr %65, i64 %69
  %71 = load i64, ptr %70, align 8, !tbaa !11
  %72 = or i64 %71, %62
  store i64 %72, ptr %70, align 8, !tbaa !11
  %73 = load ptr, ptr %3, align 8, !tbaa !4
  %74 = getelementptr inbounds nuw %struct.ewah_bitmap, ptr %73, i32 0, i32 0
  %75 = load ptr, ptr %74, align 8, !tbaa !21
  %76 = load ptr, ptr %3, align 8, !tbaa !4
  %77 = getelementptr inbounds nuw %struct.ewah_bitmap, ptr %76, i32 0, i32 1
  %78 = load i64, ptr %77, align 8, !tbaa !20
  %79 = sub i64 %78, 1
  %80 = getelementptr inbounds nuw i64, ptr %75, i64 %79
  %81 = load i64, ptr %80, align 8, !tbaa !11
  %82 = icmp eq i64 %81, -1
  br i1 %82, label %83, label %102

83:                                               ; preds = %59
  %84 = load ptr, ptr %3, align 8, !tbaa !4
  %85 = getelementptr inbounds nuw %struct.ewah_bitmap, ptr %84, i32 0, i32 0
  %86 = load ptr, ptr %85, align 8, !tbaa !21
  %87 = load ptr, ptr %3, align 8, !tbaa !4
  %88 = getelementptr inbounds nuw %struct.ewah_bitmap, ptr %87, i32 0, i32 1
  %89 = load i64, ptr %88, align 8, !tbaa !20
  %90 = add i64 %89, -1
  store i64 %90, ptr %88, align 8, !tbaa !20
  %91 = getelementptr inbounds nuw i64, ptr %86, i64 %90
  store i64 0, ptr %91, align 8, !tbaa !11
  %92 = load ptr, ptr %3, align 8, !tbaa !4
  %93 = getelementptr inbounds nuw %struct.ewah_bitmap, ptr %92, i32 0, i32 4
  %94 = load ptr, ptr %93, align 8, !tbaa !16
  %95 = load ptr, ptr %3, align 8, !tbaa !4
  %96 = getelementptr inbounds nuw %struct.ewah_bitmap, ptr %95, i32 0, i32 4
  %97 = load ptr, ptr %96, align 8, !tbaa !16
  %98 = call i64 @rlw_get_literal_words(ptr noundef %97)
  %99 = sub i64 %98, 1
  call void @rlw_set_literal_words(ptr noundef %94, i64 noundef %99)
  %100 = load ptr, ptr %3, align 8, !tbaa !4
  %101 = call i64 @add_empty_word(ptr noundef %100, i32 noundef 1)
  br label %102

102:                                              ; preds = %83, %59
  store i32 0, ptr %6, align 4
  br label %103

103:                                              ; preds = %102, %45, %33
  call void @llvm.lifetime.end.p0(i64 8, ptr %5) #7
  %104 = load i32, ptr %6, align 4
  switch i32 %104, label %106 [
    i32 0, label %105
    i32 1, label %105
  ]

105:                                              ; preds = %103, %103
  ret void

106:                                              ; preds = %103
  unreachable
}