; Function Attrs: nounwind uwtable
define dso_local void @ewah_set(ptr noundef captures(none) %0, i64 noundef %1) local_unnamed_addr #0 {
  %3 = add i64 %1, 1
  %4 = add i64 %1, 64
  %5 = lshr i64 %4, 6
  %6 = getelementptr inbounds nuw i8, ptr %0, i64 24
  %7 = load i64, ptr %6, align 8, !tbaa !4
  %8 = add i64 %7, 63
  %9 = lshr i64 %8, 6
  %10 = sub nsw i64 %5, %9
  store i64 %3, ptr %6, align 8, !tbaa !4
  %.not = icmp eq i64 %5, %9
  br i1 %.not, label %20, label %11

11:                                               ; preds = %2
  %12 = icmp ugt i64 %10, 1
  br i1 %12, label %13, label %16

13:                                               ; preds = %11
  %14 = add nsw i64 %10, -1
  %15 = tail call fastcc i64 @add_empty_words(ptr noundef nonnull %0, i32 noundef 0, i64 noundef %14)
  br label %16

16:                                               ; preds = %13, %11
  %17 = and i64 %1, 63
  %18 = shl nuw i64 1, %17
  %19 = tail call fastcc i64 @add_literal(ptr noundef nonnull %0, i64 noundef %18)
  br label %55

20:                                               ; preds = %2
  %21 = getelementptr inbounds nuw i8, ptr %0, i64 32
  %22 = load ptr, ptr %21, align 8, !tbaa !11
  %.val25 = load i64, ptr %22, align 8, !tbaa !12
  %23 = icmp ult i64 %.val25, 8589934592
  br i1 %23, label %24, label %32

24:                                               ; preds = %20
  %25 = or i64 %.val25, 8589934590
  %26 = or i64 %.val25, 1
  %27 = add nuw nsw i64 %26, 8589934590
  %28 = and i64 %27, %25
  store i64 %28, ptr %22, align 8, !tbaa !12
  %29 = and i64 %1, 63
  %30 = shl nuw i64 1, %29
  %31 = tail call fastcc i64 @add_literal(ptr noundef nonnull %0, i64 noundef %30)
  br label %55

32:                                               ; preds = %20
  %33 = and i64 %1, 63
  %34 = shl nuw i64 1, %33
  %35 = load ptr, ptr %0, align 8, !tbaa !14
  %36 = getelementptr inbounds nuw i8, ptr %0, i64 8
  %37 = load i64, ptr %36, align 8, !tbaa !13
  %38 = getelementptr i64, ptr %35, i64 %37
  %39 = getelementptr i8, ptr %38, i64 -8
  %40 = load i64, ptr %39, align 8, !tbaa !12
  %41 = or i64 %40, %34
  store i64 %41, ptr %39, align 8, !tbaa !12
  %42 = load i64, ptr %36, align 8, !tbaa !13
  %43 = getelementptr i64, ptr %35, i64 %42
  %44 = getelementptr i8, ptr %43, i64 -8
  %45 = load i64, ptr %44, align 8, !tbaa !12
  %46 = icmp eq i64 %45, -1
  br i1 %46, label %47, label %55

47:                                               ; preds = %32
  %48 = add i64 %42, -1
  store i64 %48, ptr %36, align 8, !tbaa !13
  %49 = getelementptr inbounds nuw i64, ptr %35, i64 %48
  store i64 0, ptr %49, align 8, !tbaa !12
  %.val24 = load i64, ptr %22, align 8, !tbaa !12
  %50 = or i64 %.val24, -8589934592
  %51 = or i64 %.val24, 8589934591
  %52 = add i64 %51, -8589934592
  %53 = and i64 %52, %50
  store i64 %53, ptr %22, align 8, !tbaa !12
  %54 = tail call fastcc i64 @add_empty_word(ptr noundef nonnull %0, i32 noundef 1)
  br label %55

55:                                               ; preds = %32, %47, %24, %16
  ret void
}